Certificate:
    Data:
        Version: 3 (0x2)
        Serial Number: 4098 (0x1002)
    Signature Algorithm: sha256WithRSAEncryption
        Issuer: CN=PHYTEC-ROOT/emailAddress=info@phytec.de, OU=PHYTEC, O=SW, L=Mainz, C=DE, ST=Rheinland-Pfalz
        Validity
            Not Before: Jan 21 15:29:59 2020 GMT
            Not After : Dec 30 15:29:59 2109 GMT
        Subject: CN=PHYTEC-FIT4096, O=SW, L=Mainz, C=DE, ST=Rheinland-Pfalz
        Subject Public Key Info:
            Public Key Algorithm: rsaEncryption
                Public-Key: (4096 bit)
                Modulus:
                    00:f5:b5:00:98:67:cc:7e:07:09:9f:3e:a0:93:d0:
                    b1:e5:44:e3:6a:a7:a7:ae:33:b1:74:ac:64:c1:4f:
                    b4:a2:d1:40:60:95:cf:ce:e8:73:3e:10:46:3b:55:
                    8d:fa:8c:64:3b:4d:61:dc:3f:89:d5:b6:3b:9a:25:
                    24:7d:6a:14:4f:d2:15:22:96:b9:c3:b1:31:91:ed:
                    93:8f:41:62:84:9e:e9:79:5b:57:c0:6c:75:bd:a6:
                    7f:98:07:cd:18:a4:98:7c:49:43:3a:0e:69:56:63:
                    54:39:b1:ab:58:ca:2a:a2:e1:c8:5e:58:11:08:e7:
                    97:af:5f:9b:4d:5d:6d:05:7a:b2:b0:5b:e2:89:21:
                    69:21:b3:27:bf:a8:8f:0d:16:7a:b5:05:71:ed:53:
                    3a:9e:cf:20:c2:62:1d:a9:10:f4:60:25:a6:85:c1:
                    0b:67:d5:22:bc:d8:d8:e3:92:fd:44:e3:3c:81:97:
                    96:96:6c:66:0b:bb:26:41:d8:91:5d:95:d2:0b:c9:
                    04:c5:cd:6c:a9:b1:17:d2:5d:9f:4d:55:ed:f6:6f:
                    fb:fa:4b:de:70:23:e4:0c:b6:4e:63:be:9e:46:91:
                    cf:db:fc:76:fd:62:1d:87:96:ff:42:f1:ca:43:14:
                    ea:ca:b2:1e:e6:04:72:1f:c3:af:3e:f8:88:c4:0c:
                    e4:2c:11:b2:c2:e7:8c:36:bc:cb:98:3b:17:93:fc:
                    bf:0e:73:6c:41:e6:88:38:8a:e1:33:df:9c:ef:f5:
                    30:6c:bb:bf:1e:5c:44:c3:1b:3a:9c:88:80:a9:89:
                    d1:6b:3f:fa:72:ca:ba:4d:68:04:5e:84:9a:a5:1d:
                    05:79:6a:e9:d4:f8:8f:cf:81:d9:a2:06:b3:85:6d:
                    63:8e:e2:37:37:6f:7c:c2:89:a8:ee:ce:38:10:89:
                    9c:d3:e6:61:77:19:2c:01:1b:66:d7:c5:c0:2b:11:
                    0f:27:3f:c7:77:3a:96:f2:e1:27:89:46:f0:bf:9b:
                    c9:d0:66:7f:08:45:81:8b:8e:04:37:b3:a5:9b:38:
                    4b:3f:f6:64:64:c7:20:cb:98:9a:52:30:a3:17:ab:
                    49:92:51:88:e6:1f:bf:8b:23:dc:5a:d6:2a:68:1b:
                    b6:d8:46:8d:83:76:56:9b:01:40:09:99:49:45:42:
                    4c:0b:48:8f:96:3b:08:85:57:7a:b2:b1:67:c3:cd:
                    02:38:54:94:ed:41:ec:d7:13:44:40:25:57:7a:6f:
                    41:23:6f:58:44:f7:4f:08:a4:5f:81:d9:d2:97:36:
                    c9:57:29:f3:78:5f:00:03:db:0a:b6:a2:38:0e:3b:
                    f1:11:16:21:ba:89:ff:e0:93:04:5d:73:ea:a5:21:
                    04:ce:61
                Exponent: 65537 (0x10001)
        X509v3 extensions:
            X509v3 Subject Key Identifier: 
                48:26:99:BC:0B:47:95:F0:6C:76:46:0E:43:09:2F:FD:EE:F0:21:07
            X509v3 Authority Key Identifier: 
                keyid:8B:5C:65:89:58:C5:F1:79:7A:92:57:AE:10:6F:A1:51:16:0D:28:D8

            X509v3 Basic Constraints: critical
                CA:TRUE, pathlen:0
            X509v3 Key Usage: critical
                Digital Signature, Certificate Sign, CRL Sign
    Signature Algorithm: sha256WithRSAEncryption
         a5:2d:c5:23:6c:a6:a2:eb:1d:1b:0c:ee:33:b0:eb:d5:6f:f0:
         df:20:b4:06:a7:93:e6:0f:fe:3a:5e:a0:5e:62:1f:ab:00:0d:
         e6:68:2b:32:6e:0c:27:22:7f:3f:73:e1:9f:63:c4:9c:78:d6:
         b5:63:9c:72:df:3b:d4:89:80:d4:e1:ee:ee:5b:8b:b4:4f:0a:
         69:68:77:cc:98:a2:80:ca:f5:56:1b:8a:4e:d0:fc:85:6b:fc:
         de:d0:f7:54:04:c1:82:40:dd:25:3d:19:8d:15:83:fe:79:8a:
         7e:7d:e3:bc:18:35:10:73:c4:5f:b2:1a:4f:20:1d:2c:40:30:
         7a:2c:1d:ec:c8:4c:27:3b:96:38:73:7d:52:7d:e9:3b:79:33:
         5b:cc:f2:ce:12:3a:d8:c9:5a:a7:9f:0e:31:68:43:94:8b:47:
         f3:7f:45:1f:3b:e1:7a:9f:b0:d5:b1:ca:6d:9b:9c:ba:b9:f0:
         ec:ca:c1:4e:1b:1d:76:94:73:bc:10:c8:cf:9b:55:2b:7b:2b:
         9c:65:37:00:70:56:13:68:82:99:a1:ce:ce:2c:5f:7b:f6:b9:
         fb:82:0c:93:53:5c:3e:ba:79:0c:c8:4b:88:a7:7c:f6:14:e6:
         cc:dd:e4:d5:e8:04:56:f7:4b:3a:8f:08:dc:ee:f2:35:99:5b:
         7d:e9:ce:0f:5c:de:15:31:1e:59:1d:03:c9:f8:26:0a:09:25:
         36:58:17:21:7b:d6:93:35:36:3a:ab:5a:11:7b:01:3a:d4:9b:
         0d:64:0a:5f:09:7e:1e:4b:b6:77:de:88:f6:38:5f:b7:90:9d:
         49:1a:1c:39:5f:69:e9:f7:a3:cd:a6:cc:23:ad:ac:cf:c1:ca:
         57:36:74:15:89:4a:66:d8:6c:f4:35:e5:bb:b7:d1:b8:7b:89:
         de:f3:b4:7b:cc:6f:c3:d3:93:45:47:4b:e6:99:6c:fa:ec:4e:
         74:77:4b:d6:79:b6:48:a4:30:19:bd:bd:1f:0d:a9:ad:12:14:
         42:82:bc:35:c4:75:4a:54:78:78:77:0a:3e:a6:7e:83:59:3e:
         03:9d:80:4d:ac:33:3b:46:81:e0:a8:84:37:c5:bb:cd:4c:a3:
         d1:ce:71:92:5a:91:be:09:3c:f5:9b:5f:c8:3c:22:47:44:9d:
         20:77:0c:b2:52:47:d4:e8:83:9d:2f:53:cc:d1:26:00:06:26:
         e8:ef:5f:a1:9a:fc:d0:7d:31:b1:fd:e4:47:c8:3b:aa:ce:b7:
         c6:a2:db:4b:42:40:50:9e:1b:cf:f7:77:cf:ea:e1:dd:bd:c9:
         29:47:c6:25:cc:1a:8b:10:10:97:ab:ed:5c:81:ec:55:50:46:
         7f:2d:c7:35:ff:02:e3:b4
-----BEGIN CERTIFICATE-----
MIIFzDCCA7SgAwIBAgICEAIwDQYJKoZIhvcNAQELBQAwgYoxFDASBgNVBAMMC1BI
WVRFQy1ST09UMR0wGwYJKoZIhvcNAQkBFg5pbmZvQHBoeXRlYy5kZTEPMA0GA1UE
CwwGUEhZVEVDMQswCQYDVQQKDAJTVzEOMAwGA1UEBwwFTWFpbnoxCzAJBgNVBAYT
AkRFMRgwFgYDVQQIDA9SaGVpbmxhbmQtUGZhbHowIBcNMjAwMTIxMTUyOTU5WhgP
MjEwOTEyMzAxNTI5NTlaMF0xFzAVBgNVBAMMDlBIWVRFQy1GSVQ0MDk2MQswCQYD
VQQKDAJTVzEOMAwGA1UEBwwFTWFpbnoxCzAJBgNVBAYTAkRFMRgwFgYDVQQIDA9S
aGVpbmxhbmQtUGZhbHowggIiMA0GCSqGSIb3DQEBAQUAA4ICDwAwggIKAoICAQD1
tQCYZ8x+BwmfPqCT0LHlRONqp6euM7F0rGTBT7Si0UBglc/O6HM+EEY7VY36jGQ7
TWHcP4nVtjuaJSR9ahRP0hUilrnDsTGR7ZOPQWKEnul5W1fAbHW9pn+YB80YpJh8
SUM6DmlWY1Q5satYyiqi4cheWBEI55evX5tNXW0FerKwW+KJIWkhsye/qI8NFnq1
BXHtUzqezyDCYh2pEPRgJaaFwQtn1SK82Njjkv1E4zyBl5aWbGYLuyZB2JFdldIL
yQTFzWypsRfSXZ9NVe32b/v6S95wI+QMtk5jvp5Gkc/b/Hb9Yh2Hlv9C8cpDFOrK
sh7mBHIfw68++IjEDOQsEbLC54w2vMuYOxeT/L8Oc2xB5og4iuEz35zv9TBsu78e
XETDGzqciICpidFrP/pyyrpNaARehJqlHQV5aunU+I/PgdmiBrOFbWOO4jc3b3zC
iajuzjgQiZzT5mF3GSwBG2bXxcArEQ8nP8d3Opby4SeJRvC/m8nQZn8IRYGLjgQ3
s6WbOEs/9mRkxyDLmJpSMKMXq0mSUYjmH7+LI9xa1ipoG7bYRo2DdlabAUAJmUlF
QkwLSI+WOwiFV3qysWfDzQI4VJTtQezXE0RAJVd6b0Ejb1hE908IpF+B2dKXNslX
KfN4XwAD2wq2ojgOO/ERFiG6if/gkwRdc+qlIQTOYQIDAQABo2YwZDAdBgNVHQ4E
FgQUSCaZvAtHlfBsdkYOQwkv/e7wIQcwHwYDVR0jBBgwFoAUi1xliVjF8Xl6kleu
EG+hURYNKNgwEgYDVR0TAQH/BAgwBgEB/wIBADAOBgNVHQ8BAf8EBAMCAYYwDQYJ
KoZIhvcNAQELBQADggIBAKUtxSNspqLrHRsM7jOw69Vv8N8gtAank+YP/jpeoF5i
H6sADeZoKzJuDCcifz9z4Z9jxJx41rVjnHLfO9SJgNTh7u5bi7RPCmlod8yYooDK
9VYbik7Q/IVr/N7Q91QEwYJA3SU9GY0Vg/55in5947wYNRBzxF+yGk8gHSxAMHos
HezITCc7ljhzfVJ96Tt5M1vM8s4SOtjJWqefDjFoQ5SLR/N/RR874XqfsNWxym2b
nLq58OzKwU4bHXaUc7wQyM+bVSt7K5xlNwBwVhNogpmhzs4sX3v2ufuCDJNTXD66
eQzIS4infPYU5szd5NXoBFb3SzqPCNzu8jWZW33pzg9c3hUxHlkdA8n4JgoJJTZY
FyF71pM1NjqrWhF7ATrUmw1kCl8Jfh5LtnfeiPY4X7eQnUkaHDlfaen3o82mzCOt
rM/Bylc2dBWJSmbYbPQ15bu30bh7id7ztHvMb8PTk0VHS+aZbPrsTnR3S9Z5tkik
MBm9vR8Nqa0SFEKCvDXEdUpUeHh3Cj6mfoNZPgOdgE2sMztGgeCohDfFu81Mo9HO
cZJakb4JPPWbX8g8IkdEnSB3DLJSR9Tog50vU8zRJgAGJujvX6Ga/NB9MbH95EfI
O6rOt8ai20tCQFCeG8/3d8/q4d29ySlHxiXMGosQEJer7VyB7FVQRn8txzX/AuO0
-----END CERTIFICATE-----
