Certificate:
    Data:
        Version: 3 (0x2)
        Serial Number: 4099 (0x1003)
    Signature Algorithm: sha256WithRSAEncryption
        Issuer: CN=PHYTEC-ROOT/emailAddress=info@phytec.de, OU=PHYTEC, O=SW, L=Mainz, C=DE, ST=Rheinland-Pfalz
        Validity
            Not Before: Jun  4 12:25:40 2020 GMT
            Not After : May 14 12:25:40 2110 GMT
        Subject: CN=PHYTEC-rauc, O=SW, L=Mainz, C=DE, ST=Rheinland-Pfalz
        Subject Public Key Info:
            Public Key Algorithm: rsaEncryption
                Public-Key: (2048 bit)
                Modulus:
                    00:c2:9a:4f:7a:53:53:ce:e2:fe:9a:33:39:a3:43:
                    8e:27:06:7a:c9:ea:52:9b:5c:cd:a2:de:55:02:38:
                    77:b5:bd:45:81:69:50:91:ca:78:c1:85:7e:87:3e:
                    17:55:f8:20:ed:98:a6:34:61:8c:28:3f:b5:c7:eb:
                    97:48:39:0e:d1:46:b6:cf:bd:b3:64:79:b9:89:f7:
                    88:5b:2d:7e:6c:4b:c0:38:85:5c:18:d5:89:b0:56:
                    a9:8b:86:ca:a5:03:15:73:81:b8:2d:b1:65:24:60:
                    ab:b1:fb:95:78:48:cb:d4:5f:d8:3f:47:5e:46:6e:
                    10:28:93:2e:9a:b6:09:93:8f:6d:6d:58:b0:36:b4:
                    77:e4:4e:5c:53:8f:72:e5:1e:b5:58:a6:fd:83:5c:
                    c5:ba:27:40:b9:c4:41:80:6f:3a:47:aa:55:d5:53:
                    92:11:26:40:00:64:43:42:31:0f:7d:bd:bd:07:e0:
                    fd:20:f2:4b:8c:37:44:b8:78:f6:58:0e:c1:c4:51:
                    d7:25:c7:55:e1:1c:a9:0d:79:57:70:93:87:a9:4a:
                    01:87:c8:c5:0a:d8:9c:89:0f:eb:40:00:63:0c:9a:
                    67:a0:9b:83:90:8e:75:29:21:29:9e:08:22:96:8c:
                    27:fb:6b:0a:e9:fb:f9:dc:c1:1a:80:90:1b:f6:e1:
                    2e:93
                Exponent: 65537 (0x10001)
        X509v3 extensions:
            X509v3 Subject Key Identifier: 
                FE:76:4D:95:F7:72:69:3B:01:BC:1C:32:96:BE:58:45:5F:A4:B4:E6
            X509v3 Authority Key Identifier: 
                keyid:8B:5C:65:89:58:C5:F1:79:7A:92:57:AE:10:6F:A1:51:16:0D:28:D8

            X509v3 Basic Constraints: 
                CA:TRUE
    Signature Algorithm: sha256WithRSAEncryption
         6a:c9:0c:d2:cc:f2:f0:f1:04:fa:82:34:cc:6d:62:6c:f3:a6:
         aa:f1:12:13:1d:1d:15:df:7a:b9:aa:bc:7e:28:9f:e0:c2:81:
         95:20:ba:a1:48:22:27:99:dd:e4:cb:e8:0a:11:64:e6:3c:55:
         67:b1:9e:51:e3:3c:c0:92:86:5b:96:1e:55:24:6b:54:3f:e1:
         b8:4d:a0:4d:cb:d5:de:08:3c:b8:ea:ad:32:5b:41:d9:f1:f0:
         c2:d6:98:36:44:25:1c:30:b8:b6:d1:dd:1b:68:17:30:a1:e9:
         86:50:f5:60:69:d9:61:1a:40:19:aa:d1:52:6a:15:69:48:aa:
         8d:b3:33:44:d7:49:29:b1:21:fa:10:73:b7:a4:b7:26:39:69:
         55:d7:99:ee:4b:e8:cd:5b:92:62:12:80:07:dc:ed:08:63:4a:
         ac:0a:6a:eb:0f:7b:3b:cb:f2:17:48:91:d9:c7:6e:03:59:3b:
         8f:f1:e6:c6:88:bb:0c:08:44:ef:a3:45:bd:63:a7:7b:f3:8d:
         a7:c2:d4:8c:16:90:fb:60:07:2d:a7:77:f7:1f:2e:9d:15:ab:
         b1:08:3d:b7:93:86:43:f8:79:e0:93:3a:55:02:84:de:ff:7b:
         a0:54:5d:ec:bf:6c:28:92:c0:9f:77:6c:d0:4a:a6:e8:fe:a7:
         f1:91:a3:f1:dc:fb:f3:80:dc:f1:fa:d7:70:53:6e:ff:cb:b6:
         9b:db:75:ec:db:0b:b2:e7:e6:bf:b9:8c:78:3d:99:16:a8:fd:
         f0:bd:23:52:52:5d:18:b4:ef:b7:b6:8c:6a:af:bd:03:79:bc:
         ff:9b:72:93:f9:20:7a:42:50:d6:37:33:4b:56:87:aa:cb:37:
         06:7b:74:6d:36:46:f1:6f:67:ea:94:1f:ec:42:d9:e3:03:a1:
         65:c9:8b:00:c7:73:d5:36:4f:d5:14:32:3d:1d:92:b7:aa:94:
         c8:81:10:33:08:00:7f:0a:a9:a5:29:d6:bd:9a:23:e3:79:84:
         40:5d:3f:3d:53:9c:b2:ef:ab:2e:c1:18:be:a7:c5:25:f5:dc:
         3a:4b:eb:3f:05:9c:cf:20:02:55:be:88:94:cc:14:4c:d2:2b:
         e4:39:d1:bc:ce:b0:72:5d:f1:63:17:28:65:9b:c1:73:74:12:
         67:08:be:f0:be:18:2a:2f:8b:9e:7a:59:7d:23:5c:16:b8:e0:
         f4:1b:ed:ff:83:df:91:1d:24:af:be:48:3e:2d:56:65:b4:df:
         93:1c:5e:54:40:7a:bb:58:e7:fc:97:30:0f:21:63:04:50:2c:
         1b:ef:30:bc:85:2c:16:2e:89:09:c6:f6:6d:5b:19:dc:1e:a0:
         14:ef:e4:b0:5d:d5:ac:ae
-----BEGIN CERTIFICATE-----
MIIEszCCApugAwIBAgICEAMwDQYJKoZIhvcNAQELBQAwgYoxFDASBgNVBAMMC1BI
WVRFQy1ST09UMR0wGwYJKoZIhvcNAQkBFg5pbmZvQHBoeXRlYy5kZTEPMA0GA1UE
CwwGUEhZVEVDMQswCQYDVQQKDAJTVzEOMAwGA1UEBwwFTWFpbnoxCzAJBgNVBAYT
AkRFMRgwFgYDVQQIDA9SaGVpbmxhbmQtUGZhbHowIBcNMjAwNjA0MTIyNTQwWhgP
MjExMDA1MTQxMjI1NDBaMFoxFDASBgNVBAMMC1BIWVRFQy1yYXVjMQswCQYDVQQK
DAJTVzEOMAwGA1UEBwwFTWFpbnoxCzAJBgNVBAYTAkRFMRgwFgYDVQQIDA9SaGVp
bmxhbmQtUGZhbHowggEiMA0GCSqGSIb3DQEBAQUAA4IBDwAwggEKAoIBAQDCmk96
U1PO4v6aMzmjQ44nBnrJ6lKbXM2i3lUCOHe1vUWBaVCRynjBhX6HPhdV+CDtmKY0
YYwoP7XH65dIOQ7RRrbPvbNkebmJ94hbLX5sS8A4hVwY1YmwVqmLhsqlAxVzgbgt
sWUkYKux+5V4SMvUX9g/R15GbhAoky6atgmTj21tWLA2tHfkTlxTj3LlHrVYpv2D
XMW6J0C5xEGAbzpHqlXVU5IRJkAAZENCMQ99vb0H4P0g8kuMN0S4ePZYDsHEUdcl
x1XhHKkNeVdwk4epSgGHyMUK2JyJD+tAAGMMmmegm4OQjnUpISmeCCKWjCf7awrp
+/ncwRqAkBv24S6TAgMBAAGjUDBOMB0GA1UdDgQWBBT+dk2V93JpOwG8HDKWvlhF
X6S05jAfBgNVHSMEGDAWgBSLXGWJWMXxeXqSV64Qb6FRFg0o2DAMBgNVHRMEBTAD
AQH/MA0GCSqGSIb3DQEBCwUAA4ICAQBqyQzSzPLw8QT6gjTMbWJs86aq8RITHR0V
33q5qrx+KJ/gwoGVILqhSCInmd3ky+gKEWTmPFVnsZ5R4zzAkoZblh5VJGtUP+G4
TaBNy9XeCDy46q0yW0HZ8fDC1pg2RCUcMLi20d0baBcwoemGUPVgadlhGkAZqtFS
ahVpSKqNszNE10kpsSH6EHO3pLcmOWlV15nuS+jNW5JiEoAH3O0IY0qsCmrrD3s7
y/IXSJHZx24DWTuP8ebGiLsMCETvo0W9Y6d7842nwtSMFpD7YActp3f3Hy6dFaux
CD23k4ZD+HngkzpVAoTe/3ugVF3sv2woksCfd2zQSqbo/qfxkaPx3PvzgNzx+tdw
U27/y7ab23Xs2wuy5+a/uYx4PZkWqP3wvSNSUl0YtO+3toxqr70Debz/m3KT+SB6
QlDWNzNLVoeqyzcGe3RtNkbxb2fqlB/sQtnjA6FlyYsAx3PVNk/VFDI9HZK3qpTI
gRAzCAB/CqmlKda9miPjeYRAXT89U5yy76suwRi+p8Ul9dw6S+s/BZzPIAJVvoiU
zBRM0ivkOdG8zrByXfFjFyhlm8FzdBJnCL7wvhgqL4ueell9I1wWuOD0G+3/g9+R
HSSvvkg+LVZltN+THF5UQHq7WOf8lzAPIWMEUCwb7zC8hSwWLokJxvZtWxncHqAU
7+SwXdWsrg==
-----END CERTIFICATE-----
