Certificate:
    Data:
        Version: 3 (0x2)
        Serial Number: 1 (0x1)
    Signature Algorithm: sha256WithRSAEncryption
        Issuer: CN=PHYTEC-rauc, O=SW, L=Mainz, C=DE, ST=Rheinland-Pfalz
        Validity
            Not Before: Jan  1 00:00:00 1970 GMT
            Not After : Dec 31 23:59:59 9999 GMT
        Subject: O=SW, CN=PHYTEC Messtechnik GmbH Development-1
        Subject Public Key Info:
            Public Key Algorithm: rsaEncryption
                Public-Key: (2048 bit)
                Modulus:
                    00:ae:b5:dc:b8:d2:16:81:3d:15:26:b4:cb:63:5a:
                    aa:15:d0:ca:9f:aa:9b:a0:46:1c:7b:11:70:cc:22:
                    7e:a9:90:18:61:cd:8d:aa:56:15:a3:a9:6f:32:51:
                    06:ab:3f:94:41:07:0e:0f:85:ae:4c:f8:27:0d:c2:
                    85:9e:15:51:a2:e2:ef:fd:54:0e:28:4b:ed:77:62:
                    cd:62:b1:d3:f2:d3:64:c5:86:13:c0:26:3b:21:1c:
                    f8:7a:0e:62:98:a3:61:ae:c4:de:3d:ce:87:6c:43:
                    4d:a8:c2:1b:b3:27:eb:09:d1:29:5e:e2:a5:49:62:
                    7a:9d:a3:e7:74:ea:b4:82:ce:f9:1c:67:76:10:07:
                    bc:73:7c:f5:a9:ff:e3:76:76:9e:97:a9:d0:52:b8:
                    f6:3b:b1:18:e1:56:dc:a3:74:b7:12:f7:be:20:bd:
                    da:0b:dc:90:6f:a2:01:5a:de:8c:5d:c4:64:67:fe:
                    18:a8:be:b3:8b:4d:48:c6:8b:f2:2b:c7:67:9d:22:
                    2e:33:a9:f2:c7:f1:cc:4d:cc:45:c1:1f:64:42:b5:
                    cd:fd:7d:78:3d:dd:36:d2:3f:11:95:a5:1a:cf:89:
                    0e:07:b2:80:37:ff:24:7e:db:de:70:b6:9f:37:68:
                    1c:3b:2d:c7:0c:84:15:35:79:8d:aa:0d:e8:8b:0f:
                    ed:6b
                Exponent: 65537 (0x10001)
        X509v3 extensions:
            X509v3 Subject Key Identifier: 
                5A:E0:1F:A1:17:D3:C4:E0:FE:C8:8C:9D:03:9F:60:FA:F1:15:F6:3E
            X509v3 Authority Key Identifier: 
                keyid:FE:76:4D:95:F7:72:69:3B:01:BC:1C:32:96:BE:58:45:5F:A4:B4:E6
                DirName:/CN=PHYTEC-ROOT/emailAddress=info@phytec.de/OU=PHYTEC/O=SW/L=Mainz/C=DE/ST=Rheinland-Pfalz
                serial:10:03

            X509v3 Basic Constraints: 
                CA:FALSE
    Signature Algorithm: sha256WithRSAEncryption
         8f:d7:6e:30:a0:30:75:6b:2e:5b:ff:29:8a:33:5e:0e:b5:aa:
         20:4b:89:f7:15:69:42:52:98:41:be:cd:9d:ef:a8:4b:31:f5:
         31:e2:0d:33:ba:0d:92:1b:cc:0d:62:ed:5a:60:bf:9f:b9:da:
         8e:f1:87:8e:da:c4:6e:40:8b:44:94:6a:a8:a5:27:da:5c:0a:
         9e:23:b9:a5:1d:e7:9b:f5:af:35:33:46:5e:b9:ac:44:b1:08:
         2f:99:0d:96:b0:51:83:02:fb:f2:90:49:96:41:f2:ea:08:5e:
         06:f0:bf:f8:cb:d5:ba:d4:0b:d9:bf:98:f4:41:b0:27:03:ef:
         9e:07:31:cf:a0:a3:ff:34:67:78:31:20:ab:5d:aa:60:3a:96:
         59:5e:14:5b:5e:be:c4:3a:12:52:cb:71:dd:8e:71:06:4b:d3:
         f9:41:77:86:28:7f:e8:9b:e4:2d:39:34:18:54:4a:93:28:d4:
         a6:df:88:18:1a:da:ca:0f:2a:04:62:c0:53:0d:d9:eb:22:bd:
         93:2d:bc:d4:94:0f:14:02:0e:0d:e6:cf:5b:51:54:10:c0:ea:
         e3:b3:11:23:77:d4:a2:d9:a7:dd:93:67:aa:49:59:fa:f0:94:
         b3:27:fb:95:81:bb:0e:fb:73:ae:c9:9e:33:01:37:56:b2:c2:
         8b:55:f7:36
-----BEGIN CERTIFICATE-----
MIID/zCCAuegAwIBAgIBATANBgkqhkiG9w0BAQsFADBaMRQwEgYDVQQDDAtQSFlU
RUMtcmF1YzELMAkGA1UECgwCU1cxDjAMBgNVBAcMBU1haW56MQswCQYDVQQGEwJE
RTEYMBYGA1UECAwPUmhlaW5sYW5kLVBmYWx6MCIYDzE5NzAwMTAxMDAwMDAwWhgP
OTk5OTEyMzEyMzU5NTlaMD0xCzAJBgNVBAoMAlNXMS4wLAYDVQQDDCVQSFlURUMg
TWVzc3RlY2huaWsgR21iSCBEZXZlbG9wbWVudC0xMIIBIjANBgkqhkiG9w0BAQEF
AAOCAQ8AMIIBCgKCAQEArrXcuNIWgT0VJrTLY1qqFdDKn6qboEYcexFwzCJ+qZAY
Yc2NqlYVo6lvMlEGqz+UQQcOD4WuTPgnDcKFnhVRouLv/VQOKEvtd2LNYrHT8tNk
xYYTwCY7IRz4eg5imKNhrsTePc6HbENNqMIbsyfrCdEpXuKlSWJ6naPndOq0gs75
HGd2EAe8c3z1qf/jdnael6nQUrj2O7EY4Vbco3S3Eve+IL3aC9yQb6IBWt6MXcRk
Z/4YqL6zi01IxovyK8dnnSIuM6nyx/HMTcxFwR9kQrXN/X14Pd020j8RlaUaz4kO
B7KAN/8kftvecLafN2gcOy3HDIQVNXmNqg3oiw/tawIDAQABo4HoMIHlMB0GA1Ud
DgQWBBRa4B+hF9PE4P7IjJ0Dn2D68RX2PjCBuAYDVR0jBIGwMIGtgBT+dk2V93Jp
OwG8HDKWvlhFX6S05qGBkKSBjTCBijEUMBIGA1UEAwwLUEhZVEVDLVJPT1QxHTAb
BgkqhkiG9w0BCQEWDmluZm9AcGh5dGVjLmRlMQ8wDQYDVQQLDAZQSFlURUMxCzAJ
BgNVBAoMAlNXMQ4wDAYDVQQHDAVNYWluejELMAkGA1UEBhMCREUxGDAWBgNVBAgM
D1JoZWlubGFuZC1QZmFseoICEAMwCQYDVR0TBAIwADANBgkqhkiG9w0BAQsFAAOC
AQEAj9duMKAwdWsuW/8pijNeDrWqIEuJ9xVpQlKYQb7Nne+oSzH1MeINM7oNkhvM
DWLtWmC/n7najvGHjtrEbkCLRJRqqKUn2lwKniO5pR3nm/WvNTNGXrmsRLEIL5kN
lrBRgwL78pBJlkHy6gheBvC/+MvVutQL2b+Y9EGwJwPvngcxz6Cj/zRneDEgq12q
YDqWWV4UW16+xDoSUstx3Y5xBkvT+UF3hih/6JvkLTk0GFRKkyjUpt+IGBrayg8q
BGLAUw3Z6yK9ky281JQPFAIODebPW1FUEMDq47MRI3fUotmn3ZNnqklZ+vCUsyf7
lYG7DvtzrsmeMwE3VrLCi1X3Ng==
-----END CERTIFICATE-----
