Certificate:
    Data:
        Version: 3 (0x2)
        Serial Number: 305419909 (0x12345685)
    Signature Algorithm: sha256WithRSAEncryption
        Issuer: CN=SRK1_sha256_4096_65537_v3_ca
        Validity
            Not Before: Jan 21 15:36:39 2020 GMT
            Not After : Jan 18 15:36:39 2030 GMT
        Subject: CN=CSF1_1_sha256_4096_65537_v3_usr
        Subject Public Key Info:
            Public Key Algorithm: rsaEncryption
                Public-Key: (4096 bit)
                Modulus:
                    00:b3:5e:dc:00:28:0f:24:ef:b2:c4:1b:21:0f:80:
                    26:25:d0:4f:80:6c:e1:15:8a:23:de:b7:68:5f:ea:
                    a7:18:82:08:26:4e:72:30:40:d5:b8:30:89:a3:62:
                    59:ff:7e:ae:ed:ea:8d:22:9e:d3:ca:a2:82:d1:e9:
                    c4:4e:e8:9b:92:1d:56:80:88:cd:26:d2:89:eb:34:
                    30:39:bd:ea:cf:44:ed:16:a2:89:08:1b:11:06:7c:
                    72:d3:ed:2c:da:24:8f:39:8b:6e:51:31:3c:0a:c0:
                    d5:3e:2a:30:3e:cf:29:00:01:90:26:d3:d1:2f:57:
                    ab:83:0c:f7:8d:16:44:0a:2b:f8:19:d3:0b:81:6e:
                    8a:74:82:cc:7a:d8:1f:d6:55:e5:04:83:a4:51:7d:
                    4d:b7:36:cf:d8:51:d4:dd:04:65:8e:44:b4:a9:f1:
                    de:90:23:fb:62:35:f3:c0:9d:32:4e:53:c2:a2:a3:
                    04:5c:ed:32:5e:53:12:7c:2d:a9:ce:fa:43:14:b6:
                    39:ad:46:40:2f:a4:5b:02:c9:40:28:b3:18:e2:55:
                    c7:e1:f4:bb:f3:df:e8:b4:95:93:29:d6:ee:40:cf:
                    27:1e:fb:d5:2c:47:11:3f:a7:4a:af:df:2f:1e:4d:
                    0a:d2:3a:4e:42:5d:97:1a:56:81:91:3e:dd:92:85:
                    80:7a:52:37:bf:e9:f5:2d:1f:69:f2:f0:eb:a2:18:
                    c9:92:86:7a:93:0d:2d:ee:17:4c:da:c1:41:46:50:
                    1d:04:21:68:05:80:66:a4:67:04:05:1c:57:46:e6:
                    3a:d5:51:ec:a7:db:26:0c:d2:a3:72:79:8f:9a:f9:
                    c7:04:a4:24:6e:fa:6e:f0:eb:ef:5b:15:77:ab:7c:
                    e9:7e:ca:82:0d:c0:b4:72:0e:11:52:09:d5:9c:9e:
                    25:f7:3f:09:eb:50:38:d0:34:1d:e1:ff:a0:48:fd:
                    bb:70:79:89:24:33:8e:1f:22:9f:6e:54:7a:7e:c6:
                    45:2f:2a:60:15:9f:f6:3b:cf:f6:30:c2:47:ba:f9:
                    2d:49:8c:9a:bd:7f:8d:31:d8:dc:8f:86:4a:c7:17:
                    b7:1f:bd:20:42:c9:90:4f:33:b0:ce:03:ad:56:64:
                    cf:51:d4:d2:a4:f6:06:86:0d:d4:29:75:86:5c:81:
                    0b:6c:16:24:da:98:41:b5:8f:0a:7e:7b:f1:de:67:
                    90:f2:54:49:09:14:91:8e:b2:18:0e:73:26:e7:12:
                    bf:32:da:23:1b:35:a8:9b:66:83:d2:6e:96:fc:b0:
                    6d:80:22:8f:b3:ed:a8:41:f2:b9:d2:30:72:c9:1a:
                    cd:89:7e:f9:66:9a:ca:52:27:5f:0a:b5:6c:21:cf:
                    dc:1f:c3
                Exponent: 65537 (0x10001)
        X509v3 extensions:
            X509v3 Basic Constraints: 
                CA:FALSE
            Netscape Comment: 
                OpenSSL Generated Certificate
            X509v3 Subject Key Identifier: 
                04:DA:2E:3E:42:8A:BF:80:E8:65:20:28:73:93:26:C1:CA:4C:99:12
            X509v3 Authority Key Identifier: 
                keyid:05:DD:50:DA:26:35:D8:2A:5E:66:84:7A:43:14:0D:D2:5E:87:68:C7

    Signature Algorithm: sha256WithRSAEncryption
         9d:b6:31:1d:0c:75:81:96:87:98:7e:e9:33:7d:89:fa:c0:df:
         b9:78:0a:1c:db:40:16:c4:ea:25:20:c1:55:b2:f3:96:f3:48:
         62:ee:51:62:dc:91:7b:70:b8:b0:90:30:9f:e1:ed:4f:9d:69:
         a3:7c:c5:35:83:94:85:b7:33:5d:5b:db:b6:5c:fa:01:a8:f8:
         b0:c8:d1:05:b3:49:4d:cb:ae:c2:1a:78:c4:d4:27:d6:7f:a2:
         5d:46:2e:9f:64:9a:9d:ca:24:fd:f6:15:b0:7a:ae:f9:1a:03:
         79:5c:20:4f:49:fe:0c:bd:13:a8:ac:1d:e1:65:d4:65:a3:18:
         c1:67:df:f8:ee:a7:36:c3:bc:e1:aa:b4:44:2c:61:eb:1d:a4:
         e6:c3:c7:20:86:8c:ed:43:46:d2:50:8f:a2:b9:f2:6b:df:b2:
         07:26:de:1c:df:76:a6:c6:e8:9f:05:7c:cf:6f:16:9b:d3:c8:
         f4:d8:77:7e:0a:03:f0:78:da:8a:d4:90:d3:d4:1d:8b:1f:46:
         ec:4b:d7:8d:5f:6f:e1:f1:68:1b:24:3a:bf:48:b8:eb:59:14:
         d9:59:7b:52:d8:0e:0e:bf:14:b1:82:3e:f4:1a:b3:59:a7:f4:
         e1:fd:cd:4b:b0:ec:e2:47:be:dc:0a:0e:3a:95:32:2d:78:e1:
         ec:d6:18:29:fd:fc:6f:eb:92:e2:1d:b0:d5:f4:90:37:7d:fb:
         d0:54:d9:b9:6c:bf:b2:c5:66:2e:3d:02:d7:76:6d:36:77:0c:
         17:1e:c3:0e:53:6e:60:62:12:e2:b8:99:35:25:f2:52:20:44:
         a8:35:93:b4:e8:b5:b7:db:40:2c:2b:b8:b9:e6:6f:cb:14:57:
         11:b6:38:6d:40:1d:dd:d6:99:02:a1:0d:6c:64:cc:a2:f6:71:
         25:4e:2c:4a:60:75:a4:42:04:fe:eb:cd:b0:fd:5e:ee:b1:e1:
         db:fa:37:3d:5f:ee:12:3d:ab:46:18:6e:cd:60:e2:24:21:b4:
         d6:b9:da:c8:59:46:21:43:d3:8f:23:77:46:72:20:cb:82:ef:
         da:76:00:5f:33:08:59:03:3e:9d:f3:c2:47:f9:0e:d0:8e:46:
         5a:d6:b8:89:44:5d:7b:16:b2:0e:af:af:ae:99:5c:56:02:a8:
         11:e8:d4:13:ef:c0:24:c3:88:26:27:66:50:63:8b:45:a2:e5:
         a2:58:da:2b:f8:17:fc:70:b5:f5:e1:55:ef:88:e3:22:0a:94:
         d9:84:2c:6f:74:9a:dd:f0:49:63:46:30:57:2b:3f:84:18:b1:
         df:49:64:f0:e8:c1:ef:db:e2:21:c5:1b:31:05:35:2c:11:75:
         46:d6:ea:bf:8d:2b:ea:7d
-----BEGIN CERTIFICATE-----
MIIFSjCCAzKgAwIBAgIEEjRWhTANBgkqhkiG9w0BAQsFADAnMSUwIwYDVQQDFBxT
UksxX3NoYTI1Nl80MDk2XzY1NTM3X3YzX2NhMB4XDTIwMDEyMTE1MzYzOVoXDTMw
MDExODE1MzYzOVowKjEoMCYGA1UEAxQfQ1NGMV8xX3NoYTI1Nl80MDk2XzY1NTM3
X3YzX3VzcjCCAiIwDQYJKoZIhvcNAQEBBQADggIPADCCAgoCggIBALNe3AAoDyTv
ssQbIQ+AJiXQT4Bs4RWKI963aF/qpxiCCCZOcjBA1bgwiaNiWf9+ru3qjSKe08qi
gtHpxE7om5IdVoCIzSbSies0MDm96s9E7RaiiQgbEQZ8ctPtLNokjzmLblExPArA
1T4qMD7PKQABkCbT0S9Xq4MM940WRAor+BnTC4FuinSCzHrYH9ZV5QSDpFF9Tbc2
z9hR1N0EZY5EtKnx3pAj+2I188CdMk5TwqKjBFztMl5TEnwtqc76QxS2Oa1GQC+k
WwLJQCizGOJVx+H0u/Pf6LSVkynW7kDPJx771SxHET+nSq/fLx5NCtI6TkJdlxpW
gZE+3ZKFgHpSN7/p9S0fafLw66IYyZKGepMNLe4XTNrBQUZQHQQhaAWAZqRnBAUc
V0bmOtVR7KfbJgzSo3J5j5r5xwSkJG76bvDr71sVd6t86X7Kgg3AtHIOEVIJ1Zye
Jfc/CetQONA0HeH/oEj9u3B5iSQzjh8in25Uen7GRS8qYBWf9jvP9jDCR7r5LUmM
mr1/jTHY3I+GSscXtx+9IELJkE8zsM4DrVZkz1HU0qT2BoYN1Cl1hlyBC2wWJNqY
QbWPCn578d5nkPJUSQkUkY6yGA5zJucSvzLaIxs1qJtmg9JulvywbYAij7PtqEHy
udIwcskazYl++WaaylInXwq1bCHP3B/DAgMBAAGjezB5MAkGA1UdEwQCMAAwLAYJ
YIZIAYb4QgENBB8WHU9wZW5TU0wgR2VuZXJhdGVkIENlcnRpZmljYXRlMB0GA1Ud
DgQWBBQE2i4+Qoq/gOhlIChzkybBykyZEjAfBgNVHSMEGDAWgBQF3VDaJjXYKl5m
hHpDFA3SXodoxzANBgkqhkiG9w0BAQsFAAOCAgEAnbYxHQx1gZaHmH7pM32J+sDf
uXgKHNtAFsTqJSDBVbLzlvNIYu5RYtyRe3C4sJAwn+HtT51po3zFNYOUhbczXVvb
tlz6Aaj4sMjRBbNJTcuuwhp4xNQn1n+iXUYun2Sancok/fYVsHqu+RoDeVwgT0n+
DL0TqKwd4WXUZaMYwWff+O6nNsO84aq0RCxh6x2k5sPHIIaM7UNG0lCPornya9+y
BybeHN92psbonwV8z28Wm9PI9Nh3fgoD8HjaitSQ09Qdix9G7EvXjV9v4fFoGyQ6
v0i461kU2Vl7UtgODr8UsYI+9BqzWaf04f3NS7Ds4ke+3AoOOpUyLXjh7NYYKf38
b+uS4h2w1fSQN3370FTZuWy/ssVmLj0C13ZtNncMFx7DDlNuYGIS4riZNSXyUiBE
qDWTtOi1t9tALCu4ueZvyxRXEbY4bUAd3daZAqENbGTMovZxJU4sSmB1pEIE/uvN
sP1e7rHh2/o3PV/uEj2rRhhuzWDiJCG01rnayFlGIUPTjyN3RnIgy4Lv2nYAXzMI
WQM+nfPCR/kO0I5GWta4iURdexayDq+vrplcVgKoEejUE+/AJMOIJidmUGOLRaLl
oljaK/gX/HC19eFV74jjIgqU2YQsb3Sa3fBJY0YwVys/hBix30lk8OjB79viIcUb
MQU1LBF1Rtbqv40r6n0=
-----END CERTIFICATE-----
