Certificate:
    Data:
        Version: 3 (0x2)
        Serial Number: 305419910 (0x12345686)
    Signature Algorithm: sha256WithRSAEncryption
        Issuer: CN=SRK1_sha256_4096_65537_v3_ca
        Validity
            Not Before: Jan 21 15:36:39 2020 GMT
            Not After : Jan 18 15:36:39 2030 GMT
        Subject: CN=IMG1_1_sha256_4096_65537_v3_usr
        Subject Public Key Info:
            Public Key Algorithm: rsaEncryption
                Public-Key: (4096 bit)
                Modulus:
                    00:9e:10:ae:ca:eb:1e:6f:71:f3:b0:41:4f:4d:9e:
                    b9:c7:dc:2d:61:c3:fd:7b:ef:cd:2b:76:36:e9:aa:
                    24:8d:27:4e:9d:95:6e:25:ce:7a:10:d5:39:46:6e:
                    a7:d3:8e:a4:56:4d:f9:ac:ac:06:bc:37:71:35:fc:
                    6e:95:80:38:df:39:f8:48:2c:37:53:4d:ad:3a:43:
                    e8:31:0d:79:b2:f1:f4:90:5b:9b:9b:f7:f7:d8:ec:
                    e0:29:e1:fc:93:f2:34:88:24:29:3e:b2:1c:26:a3:
                    3d:19:b0:79:0d:ac:08:c9:a9:3d:2e:12:73:49:8f:
                    a9:3b:19:01:38:7f:df:7f:49:ab:ad:bf:80:2f:87:
                    09:46:41:52:e8:bb:df:b6:1d:e7:35:de:0e:2a:07:
                    c5:d3:41:ae:bb:2a:b3:a7:4c:ba:88:c3:fe:99:4b:
                    64:9d:75:2f:9e:57:8a:39:fb:8c:68:9f:41:4c:73:
                    66:e3:ef:57:72:ff:0b:4d:93:54:5b:11:0a:ae:74:
                    21:7b:dc:51:2f:ca:b8:89:0d:2b:2d:7d:dd:03:e4:
                    f2:74:34:ba:5a:a0:b1:e1:5b:5b:7e:01:ca:b0:58:
                    e0:ba:bc:da:a3:39:54:e9:9c:0a:b0:73:44:3a:c7:
                    ff:16:91:e5:ba:05:ac:cc:5d:fe:0d:cf:94:b2:c1:
                    6d:42:d3:4e:a5:e7:0a:02:f3:d9:be:7d:15:e2:19:
                    4c:9a:1f:75:d5:c4:86:b6:4d:08:e6:a8:e7:ac:1f:
                    72:9f:17:02:b1:3f:c3:08:8c:27:6b:4c:b6:15:aa:
                    42:3c:7f:63:af:bb:3c:b0:c6:58:c0:7f:6f:b8:a1:
                    b3:cd:2f:af:5e:46:b5:91:7f:cc:85:fc:72:98:d0:
                    8d:6b:62:23:37:8d:5f:ab:9e:1f:6a:27:af:3d:3b:
                    4c:33:74:06:fc:57:0e:1b:9c:91:87:58:1e:d2:d7:
                    dc:3f:41:0a:7a:6e:3c:06:88:61:4a:15:7c:b1:8a:
                    6b:72:5d:30:f4:3d:19:8d:8e:b1:34:de:6f:fb:75:
                    7a:41:4b:de:3b:dc:e1:76:81:e8:3e:45:dd:a9:c2:
                    4d:b7:c9:c9:58:38:a6:10:dc:b8:3f:e4:9b:85:c6:
                    e5:2d:8f:d7:a3:a7:65:42:2f:38:16:98:81:17:1d:
                    31:c6:79:ff:78:1f:3c:72:38:f8:cb:0e:2f:98:40:
                    3a:78:ee:f8:36:2b:c7:7d:20:3a:2f:ea:04:9e:bd:
                    3d:a8:e0:2a:9f:f5:1f:c4:7f:41:e4:df:ad:31:fd:
                    2a:03:8e:3c:9f:86:f5:54:20:c8:d6:b2:06:1a:1c:
                    ac:ee:27:99:bd:da:1a:d3:6c:03:65:e8:1f:27:fe:
                    1e:a4:53
                Exponent: 65537 (0x10001)
        X509v3 extensions:
            X509v3 Basic Constraints: 
                CA:FALSE
            Netscape Comment: 
                OpenSSL Generated Certificate
            X509v3 Subject Key Identifier: 
                9F:62:90:95:CB:9D:5A:3E:DE:A0:5F:29:28:CD:F6:D1:2D:C3:D3:DB
            X509v3 Authority Key Identifier: 
                keyid:05:DD:50:DA:26:35:D8:2A:5E:66:84:7A:43:14:0D:D2:5E:87:68:C7

    Signature Algorithm: sha256WithRSAEncryption
         8e:e1:52:68:bf:b1:1d:57:65:e7:9e:d9:b3:80:82:b8:c7:13:
         d7:b8:30:78:17:58:0d:1a:c0:10:56:39:ef:6d:ad:43:66:8a:
         b1:58:13:92:bc:4a:cb:8a:8b:d4:9d:12:2f:2c:31:c3:a5:bc:
         e5:35:e1:8e:1b:f8:a3:2a:65:e3:1e:3c:e6:81:d8:19:4f:1e:
         ef:f2:10:cd:7a:5a:20:f4:dc:ce:d6:9e:f9:ec:59:c5:8e:d9:
         2f:56:2c:e5:4c:61:1e:5b:c5:4c:af:c3:fe:7f:6e:05:96:23:
         af:2b:99:cc:7e:b2:96:36:e8:47:33:77:ff:20:8a:fd:f7:65:
         17:56:64:7d:6b:36:30:ba:b6:51:6c:a4:c5:92:1d:1a:ba:5a:
         45:d7:d3:61:c4:7a:5e:9e:9d:c7:1c:5d:dd:cf:d4:52:ac:11:
         17:7a:d6:54:8e:1b:75:56:5e:d1:d8:95:63:63:2d:7c:87:94:
         90:98:78:59:91:63:cf:72:d0:5f:f4:70:72:30:4e:1d:87:26:
         50:89:00:39:ae:29:a5:75:a4:6b:9a:3f:8c:35:26:a5:1d:ac:
         9b:37:1e:76:37:b3:26:4c:d2:96:4f:b4:85:c1:32:3c:de:4d:
         be:47:83:ac:cb:34:95:09:d9:e1:78:40:5a:5a:20:b1:36:ce:
         62:e0:33:72:9e:e7:49:3e:cb:79:38:68:c6:d0:d9:1e:2f:2b:
         3f:10:d5:27:9c:69:88:e6:14:c7:5b:74:11:0d:9b:ec:44:20:
         4d:2a:07:f0:96:b0:2e:14:f9:71:4f:a5:00:81:90:b9:38:01:
         51:61:f2:eb:48:d3:0b:83:84:ab:f6:d6:e4:fc:4e:29:39:25:
         c5:51:61:ec:80:12:5e:30:3f:18:d8:0c:b4:f9:bc:ba:2b:f9:
         3a:bc:06:a7:c5:2e:bf:a5:c8:24:bd:2f:c5:1f:ab:31:aa:26:
         5d:fb:4c:90:fc:eb:09:16:b8:9d:33:f1:de:f9:2f:e5:3a:27:
         8c:c0:d6:04:87:e0:4f:61:ec:20:76:e7:1d:29:e7:2e:0b:d2:
         0e:07:51:12:84:b1:4c:b6:61:1e:44:41:b3:56:cd:ba:54:6d:
         17:07:fe:b0:14:64:e8:87:68:25:5e:1d:07:01:04:37:03:c5:
         57:6e:e3:d4:32:2b:2a:00:0b:5a:fc:3a:5c:50:7f:ed:59:cb:
         1d:aa:6a:a3:53:f1:83:40:46:70:d2:ae:45:56:6c:3b:13:ed:
         ed:46:8a:3d:ba:c0:9b:df:8d:56:91:c2:9b:90:c1:8d:ee:13:
         f7:ce:5c:b9:9b:11:de:8f:66:45:ee:a4:ef:39:29:93:0c:3d:
         e8:b7:4a:b2:00:a3:95:df
-----BEGIN CERTIFICATE-----
MIIFSjCCAzKgAwIBAgIEEjRWhjANBgkqhkiG9w0BAQsFADAnMSUwIwYDVQQDFBxT
UksxX3NoYTI1Nl80MDk2XzY1NTM3X3YzX2NhMB4XDTIwMDEyMTE1MzYzOVoXDTMw
MDExODE1MzYzOVowKjEoMCYGA1UEAxQfSU1HMV8xX3NoYTI1Nl80MDk2XzY1NTM3
X3YzX3VzcjCCAiIwDQYJKoZIhvcNAQEBBQADggIPADCCAgoCggIBAJ4QrsrrHm9x
87BBT02eucfcLWHD/XvvzSt2NumqJI0nTp2VbiXOehDVOUZup9OOpFZN+aysBrw3
cTX8bpWAON85+EgsN1NNrTpD6DENebLx9JBbm5v399js4Cnh/JPyNIgkKT6yHCaj
PRmweQ2sCMmpPS4Sc0mPqTsZATh/339Jq62/gC+HCUZBUui737Yd5zXeDioHxdNB
rrsqs6dMuojD/plLZJ11L55Xijn7jGifQUxzZuPvV3L/C02TVFsRCq50IXvcUS/K
uIkNKy193QPk8nQ0ulqgseFbW34ByrBY4Lq82qM5VOmcCrBzRDrH/xaR5boFrMxd
/g3PlLLBbULTTqXnCgLz2b59FeIZTJofddXEhrZNCOao56wfcp8XArE/wwiMJ2tM
thWqQjx/Y6+7PLDGWMB/b7ihs80vr15GtZF/zIX8cpjQjWtiIzeNX6ueH2onrz07
TDN0BvxXDhuckYdYHtLX3D9BCnpuPAaIYUoVfLGKa3JdMPQ9GY2OsTTeb/t1ekFL
3jvc4XaB6D5F3anCTbfJyVg4phDcuD/km4XG5S2P16OnZUIvOBaYgRcdMcZ5/3gf
PHI4+MsOL5hAOnju+DYrx30gOi/qBJ69PajgKp/1H8R/QeTfrTH9KgOOPJ+G9VQg
yNayBhocrO4nmb3aGtNsA2XoHyf+HqRTAgMBAAGjezB5MAkGA1UdEwQCMAAwLAYJ
YIZIAYb4QgENBB8WHU9wZW5TU0wgR2VuZXJhdGVkIENlcnRpZmljYXRlMB0GA1Ud
DgQWBBSfYpCVy51aPt6gXykozfbRLcPT2zAfBgNVHSMEGDAWgBQF3VDaJjXYKl5m
hHpDFA3SXodoxzANBgkqhkiG9w0BAQsFAAOCAgEAjuFSaL+xHVdl557Zs4CCuMcT
17gweBdYDRrAEFY5722tQ2aKsVgTkrxKy4qL1J0SLywxw6W85TXhjhv4oypl4x48
5oHYGU8e7/IQzXpaIPTcztae+exZxY7ZL1Ys5UxhHlvFTK/D/n9uBZYjryuZzH6y
ljboRzN3/yCK/fdlF1ZkfWs2MLq2UWykxZIdGrpaRdfTYcR6Xp6dxxxd3c/UUqwR
F3rWVI4bdVZe0diVY2MtfIeUkJh4WZFjz3LQX/RwcjBOHYcmUIkAOa4ppXWka5o/
jDUmpR2smzcedjezJkzSlk+0hcEyPN5NvkeDrMs0lQnZ4XhAWlogsTbOYuAzcp7n
ST7LeThoxtDZHi8rPxDVJ5xpiOYUx1t0EQ2b7EQgTSoH8JawLhT5cU+lAIGQuTgB
UWHy60jTC4OEq/bW5PxOKTklxVFh7IASXjA/GNgMtPm8uiv5OrwGp8Uuv6XIJL0v
xR+rMaomXftMkPzrCRa4nTPx3vkv5TonjMDWBIfgT2HsIHbnHSnnLgvSDgdREoSx
TLZhHkRBs1bNulRtFwf+sBRk6IdoJV4dBwEENwPFV27j1DIrKgALWvw6XFB/7VnL
Hapqo1Pxg0BGcNKuRVZsOxPt7UaKPbrAm9+NVpHCm5DBje4T985cuZsR3o9mRe6k
7zkpkww96LdKsgCjld8=
-----END CERTIFICATE-----
